target datalayout = "e-m:e-p270:32:32-p271:32:32-p272:64:64-i64:64-i128:128-f80:128-n8:16:32:64-S128"
target triple = "x86_64-pc-linux-gnu"

%struct.evp_test_st = type { %struct.stanza_st, ptr, i32, ptr, ptr, ptr, ptr, ptr, ptr, i32 }
%struct.stanza_st = type { ptr, ptr, i32, i32, i32, i32, i32, i32, [150 x %struct.pair_st], ptr, [32768 x i8] }
%struct.pair_st = type { ptr, ptr }
%struct.pkey_kdf_data_st = type { ptr, ptr, i64 }

@.str.217 = private unnamed_addr constant [7 x i8] c"Output\00", align 1
@.str.252 = private unnamed_addr constant [5 x i8] c"Ctrl\00", align 1

; Function Attrs: nounwind uwtable
define internal i32 @pkey_kdf_test_parse(ptr noundef %0, ptr noundef %1, ptr noundef %2) #0 {
  %4 = alloca i32, align 4
  %5 = alloca ptr, align 8
  %6 = alloca ptr, align 8
  %7 = alloca ptr, align 8
  %8 = alloca ptr, align 8
  %9 = alloca i32, align 4
  store ptr %0, ptr %5, align 8, !tbaa !15
  store ptr %1, ptr %6, align 8, !tbaa !4
  store ptr %2, ptr %7, align 8, !tbaa !4
  call void @llvm.lifetime.start.p0(i64 8, ptr %8) #10
  %10 = load ptr, ptr %5, align 8, !tbaa !15
  %11 = getelementptr inbounds nuw %struct.evp_test_st, ptr %10, i32 0, i32 8
  %12 = load ptr, ptr %11, align 8, !tbaa !66
  store ptr %12, ptr %8, align 8, !tbaa !256
  %13 = load ptr, ptr %6, align 8, !tbaa !4
  %14 = call i32 @strcmp(ptr noundef %13, ptr noundef @.str.217) #11
  %15 = icmp eq i32 %14, 0
  br i1 %15, label %16, label %23

16:                                               ; preds = %3
  %17 = load ptr, ptr %7, align 8, !tbaa !4
  %18 = load ptr, ptr %8, align 8, !tbaa !256
  %19 = getelementptr inbounds nuw %struct.pkey_kdf_data_st, ptr %18, i32 0, i32 1
  %20 = load ptr, ptr %8, align 8, !tbaa !256
  %21 = getelementptr inbounds nuw %struct.pkey_kdf_data_st, ptr %20, i32 0, i32 2
  %22 = call i32 @parse_bin(ptr noundef %17, ptr noundef %19, ptr noundef %21)
  store i32 %22, ptr %4, align 4
  store i32 1, ptr %9, align 4
  br label %35

23:                                               ; preds = %3
  %24 = load ptr, ptr %6, align 8, !tbaa !4
  %25 = call i32 @strncmp(ptr noundef %24, ptr noundef @.str.252, i64 noundef 4) #11
  %26 = icmp eq i32 %25, 0
  br i1 %26, label %27, label %34

27:                                               ; preds = %23
  %28 = load ptr, ptr %5, align 8, !tbaa !15
  %29 = load ptr, ptr %8, align 8, !tbaa !256
  %30 = getelementptr inbounds nuw %struct.pkey_kdf_data_st, ptr %29, i32 0, i32 0
  %31 = load ptr, ptr %30, align 8, !tbaa !258
  %32 = load ptr, ptr %7, align 8, !tbaa !4
  %33 = call i32 @pkey_test_ctrl(ptr noundef %28, ptr noundef %31, ptr noundef %32)
  store i32 %33, ptr %4, align 4
  store i32 1, ptr %9, align 4
  br label %35

34:                                               ; preds = %23
  store i32 0, ptr %4, align 4
  store i32 1, ptr %9, align 4
  br label %35

35:                                               ; preds = %34, %27, %16
  call void @llvm.lifetime.end.p0(i64 8, ptr %8) #10
  %36 = load i32, ptr %4, align 4
  ret i32 %36
}