; Function Attrs: nounwind uwtable
define internal range(i32 -1, 2) i32 @pkey_kdf_test_parse(ptr noundef captures(none) %0, ptr noundef readonly captures(none) %1, ptr noundef %2) #1 {
  %4 = getelementptr inbounds nuw i8, ptr %0, i64 35272
  %5 = load ptr, ptr %4, align 8, !tbaa !20
  %6 = tail call i32 @strcmp(ptr noundef nonnull dereferenceable(1) %1, ptr noundef nonnull dereferenceable(7) @.str.217) #11
  %7 = icmp eq i32 %6, 0
  br i1 %7, label %8, label %12

8:                                                ; preds = %3
  %9 = getelementptr inbounds nuw i8, ptr %5, i64 8
  %10 = getelementptr inbounds nuw i8, ptr %5, i64 16
  %11 = tail call fastcc i32 @parse_bin(ptr noundef %2, ptr noundef nonnull %9, ptr noundef nonnull %10)
  br label %18

12:                                               ; preds = %3
  %13 = tail call i32 @strncmp(ptr noundef nonnull dereferenceable(1) %1, ptr noundef nonnull dereferenceable(5) @.str.252, i64 noundef 4) #11
  %14 = icmp eq i32 %13, 0
  br i1 %14, label %15, label %18

15:                                               ; preds = %12
  %16 = load ptr, ptr %5, align 8, !tbaa !207
  %17 = tail call fastcc i32 @pkey_test_ctrl(ptr noundef nonnull %0, ptr noundef %16, ptr noundef %2)
  br label %18

18:                                               ; preds = %12, %15, %8
  %.0 = phi i32 [ %11, %8 ], [ %17, %15 ], [ 0, %12 ]
  ret i32 %.0
}